; ModuleID = '47/4074.c'
source_filename = "47/4074.c"
target datalayout = "e-m:e-p270:32:32-p271:32:32-p272:64:64-i64:64-f80:128-n8:16:32:64-S128"
target triple = "x86_64-pc-linux-gnu"

@.str = private unnamed_addr constant [3 x i8] c"%d\00", align 1
@.str.1 = private unnamed_addr constant [4 x i8] c"%d \00", align 1

; Function Attrs: noinline nounwind uwtable
define dso_local i32 @main() #0 {
  %1 = alloca i32, align 4
  %2 = alloca [100 x i32], align 16
  %3 = alloca i32, align 4
  %4 = alloca i32, align 4
  %5 = alloca i32, align 4
  store i32 0, i32* %1, align 4
  %6 = call i32 (i8*, ...) @__isoc99_scanf(i8* getelementptr inbounds ([3 x i8], [3 x i8]* @.str, i64 0, i64 0), i32* %3)
  store i32 0, i32* %4, align 4
  br label %7

7:                                                ; preds = %16, %0
  %8 = load i32, i32* %4, align 4
  %9 = load i32, i32* %3, align 4
  %10 = icmp slt i32 %8, %9
  br i1 %10, label %11, label %19

11:                                               ; preds = %7
  %12 = load i32, i32* %4, align 4
  %13 = sext i32 %12 to i64
  %14 = getelementptr inbounds [100 x i32], [100 x i32]* %2, i64 0, i64 %13
  %15 = call i32 (i8*, ...) @__isoc99_scanf(i8* getelementptr inbounds ([3 x i8], [3 x i8]* @.str, i64 0, i64 0), i32* %14)
  br label %16

16:                                               ; preds = %11
  %17 = load i32, i32* %4, align 4
  %18 = add nsw i32 %17, 1
  store i32 %18, i32* %4, align 4
  br label %7

19:                                               ; preds = %7
  store i32 0, i32* %4, align 4
  br label %20

20:                                               ; preds = %47, %19
  %21 = load i32, i32* %4, align 4
  %22 = load i32, i32* %3, align 4
  %23 = sdiv i32 %22, 2
  %24 = icmp slt i32 %21, %23
  br i1 %24, label %25, label %50

25:                                               ; preds = %20
  %26 = load i32, i32* %4, align 4
  %27 = sext i32 %26 to i64
  %28 = getelementptr inbounds [100 x i32], [100 x i32]* %2, i64 0, i64 %27
  %29 = load i32, i32* %28, align 4
  store i32 %29, i32* %5, align 4
  %30 = load i32, i32* %3, align 4
  %31 = load i32, i32* %4, align 4
  %32 = sub nsw i32 %30, %31
  %33 = sub nsw i32 %32, 1
  %34 = sext i32 %33 to i64
  %35 = getelementptr inbounds [100 x i32], [100 x i32]* %2, i64 0, i64 %34
  %36 = load i32, i32* %35, align 4
  %37 = load i32, i32* %4, align 4
  %38 = sext i32 %37 to i64
  %39 = getelementptr inbounds [100 x i32], [100 x i32]* %2, i64 0, i64 %38
  store i32 %36, i32* %39, align 4
  %40 = load i32, i32* %5, align 4
  %41 = load i32, i32* %3, align 4
  %42 = load i32, i32* %4, align 4
  %43 = sub nsw i32 %41, %42
  %44 = sub nsw i32 %43, 1
  %45 = sext i32 %44 to i64
  %46 = getelementptr inbounds [100 x i32], [100 x i32]* %2, i64 0, i64 %45
  store i32 %40, i32* %46, align 4
  br label %47

47:                                               ; preds = %25
  %48 = load i32, i32* %4, align 4
  %49 = add nsw i32 %48, 1
  store i32 %49, i32* %4, align 4
  br label %20

50:                                               ; preds = %20
  store i32 0, i32* %4, align 4
  br label %51

51:                                               ; preds = %78, %50
  %52 = load i32, i32* %4, align 4
  %53 = load i32, i32* %3, align 4
  %54 = icmp slt i32 %52, %53
  br i1 %54, label %55, label %81

55:                                               ; preds = %51
  %56 = load i32, i32* %4, align 4
  %57 = load i32, i32* %3, align 4
  %58 = sub nsw i32 %57, 1
  %59 = icmp ne i32 %56, %58
  br i1 %59, label %60, label %66

60:                                               ; preds = %55
  %61 = load i32, i32* %4, align 4
  %62 = sext i32 %61 to i64
  %63 = getelementptr inbounds [100 x i32], [100 x i32]* %2, i64 0, i64 %62
  %64 = load i32, i32* %63, align 4
  %65 = call i32 (i8*, ...) @printf(i8* getelementptr inbounds ([4 x i8], [4 x i8]* @.str.1, i64 0, i64 0), i32 %64)
  br label %66

66:                                               ; preds = %60, %55
  %67 = load i32, i32* %4, align 4
  %68 = load i32, i32* %3, align 4
  %69 = sub nsw i32 %68, 1
  %70 = icmp eq i32 %67, %69
  br i1 %70, label %71, label %77

71:                                               ; preds = %66
  %72 = load i32, i32* %4, align 4
  %73 = sext i32 %72 to i64
  %74 = getelementptr inbounds [100 x i32], [100 x i32]* %2, i64 0, i64 %73
  %75 = load i32, i32* %74, align 4
  %76 = call i32 (i8*, ...) @printf(i8* getelementptr inbounds ([3 x i8], [3 x i8]* @.str, i64 0, i64 0), i32 %75)
  br label %77

77:                                               ; preds = %71, %66
  br label %78

78:                                               ; preds = %77
  %79 = load i32, i32* %4, align 4
  %80 = add nsw i32 %79, 1
  store i32 %80, i32* %4, align 4
  br label %51

81:                                               ; preds = %51
  ret i32 0
}

declare dso_local i32 @__isoc99_scanf(i8*, ...) #1

declare dso_local i32 @printf(i8*, ...) #1


!llvm.module.flags = !{!0}
!llvm.ident = !{!1}

!0 = !{i32 1, !"wchar_size", i32 4}
!1 = !{!"clang version 10.0.0-4ubuntu1 "}
